; Function Attrs: mustprogress uwtable
define internal void @_ZN6icu_75L17deleteTZGNCoreRefEPv(ptr noundef %obj) #1 {
entry:
  %0 = load ptr, ptr %obj, align 8
  %isnull = icmp eq ptr %0, null
  br i1 %isnull, label %delete.end, label %delete.notnull

delete.notnull:                                   ; preds = %entry
  %vtable = load ptr, ptr %0, align 8
  %vfn = getelementptr inbounds i8, ptr %vtable, i64 8
  %1 = load ptr, ptr %vfn, align 8
  tail call void %1(ptr noundef nonnull align 8 dereferenceable(485) %0) #17
  br label %delete.end

delete.end:                                       ; preds = %delete.notnull, %entry
  tail call void @uprv_free_75(ptr noundef nonnull %obj)
  ret void
}